ARM GAS  C:\Users\LENOVO~1\AppData\Local\Temp\ccshijzX.s 			page 1


   1              		.syntax unified
   2              		.cpu cortex-m3
   3              		.fpu softvfp
   4              		.eabi_attribute 20, 1
   5              		.eabi_attribute 21, 1
   6              		.eabi_attribute 23, 3
   7              		.eabi_attribute 24, 1
   8              		.eabi_attribute 25, 1
   9              		.eabi_attribute 26, 1
  10              		.eabi_attribute 30, 1
  11              		.eabi_attribute 34, 1
  12              		.eabi_attribute 18, 4
  13              		.thumb
  14              		.syntax unified
  15              		.file	"main.c"
  16              		.text
  17              	.Ltext0:
  18              		.cfi_sections	.debug_frame
  19              		.global	__aeabi_i2d
  20              		.global	__aeabi_ddiv
  21              		.global	__aeabi_dmul
  22              		.global	__aeabi_d2uiz
  23              		.section	.text.main,"ax",%progbits
  24              		.align	2
  25              		.global	main
  26              		.thumb
  27              		.thumb_func
  28              		.type	main, %function
  29              	main:
  30              	.LFB64:
  31              		.file 1 "main.c"
   1:main.c        **** #include "project.h"
   2:main.c        **** #include <stdio.h>
   3:main.c        **** #include<stdlib.h>
   4:main.c        **** #include <math.h>
   5:main.c        **** #include<time.h>
   6:main.c        **** #include <stdbool.h>
   7:main.c        **** #define LED_ON 1u
   8:main.c        **** #define LED_OFF 0u
   9:main.c        **** int main(void)
  10:main.c        **** {
  32              		.loc 1 10 0
  33              		.cfi_startproc
  34              		@ args = 0, pretend = 0, frame = 1608
  35              		@ frame_needed = 0, uses_anonymous_args = 0
  36 0000 F0B5     		push	{r4, r5, r6, r7, lr}
  37              		.cfi_def_cfa_offset 20
  38              		.cfi_offset 4, -20
  39              		.cfi_offset 5, -16
  40              		.cfi_offset 6, -12
  41              		.cfi_offset 7, -8
  42              		.cfi_offset 14, -4
  43 0002 ADF24C6D 		subw	sp, sp, #1612
  44              		.cfi_def_cfa_offset 1632
  11:main.c        ****     CyGlobalIntEnable;
  45              		.loc 1 11 0
  46              		.syntax unified
ARM GAS  C:\Users\LENOVO~1\AppData\Local\Temp\ccshijzX.s 			page 2


  47              	@ 11 "main.c" 1
  48 0006 62B6     		CPSIE   i
  49              	@ 0 "" 2
  50              	.LVL0:
  12:main.c        ****     unsigned int p1 = 0;
  13:main.c        ****     unsigned int p2 = 0;
  14:main.c        ****     unsigned int total_score = 50;
  15:main.c        ****     unsigned int current_max_score = 0;
  16:main.c        ****     unsigned int t1 = 0;
  17:main.c        ****     unsigned int t2 = 0;
  18:main.c        ****     unsigned int i;
  19:main.c        **** 
  20:main.c        ****     srand(time(0));
  51              		.loc 1 20 0
  52              		.thumb
  53              		.syntax unified
  54 0008 0020     		movs	r0, #0
  55 000a FFF7FEFF 		bl	time
  56              	.LVL1:
  57 000e FFF7FEFF 		bl	srand
  58              	.LVL2:
  59              	.LBB2:
  21:main.c        ****     int prime[400 + 1];
  22:main.c        ****     bool game_continue = true;
  23:main.c        ****     for (int i = 1; i <= 400; i++)
  60              		.loc 1 23 0
  61 0012 0123     		movs	r3, #1
  62 0014 03E0     		b	.L2
  63              	.LVL3:
  64              	.L3:
  24:main.c        ****     {
  25:main.c        ****         prime[i] = i;
  65              		.loc 1 25 0 discriminator 3
  66 0016 01AA     		add	r2, sp, #4
  67 0018 42F82330 		str	r3, [r2, r3, lsl #2]
  23:main.c        ****     {
  68              		.loc 1 23 0 discriminator 3
  69 001c 0133     		adds	r3, r3, #1
  70              	.LVL4:
  71              	.L2:
  23:main.c        ****     {
  72              		.loc 1 23 0 is_stmt 0 discriminator 1
  73 001e B3F5C87F 		cmp	r3, #400
  74 0022 F8DD     		ble	.L3
  75 0024 0223     		movs	r3, #2
  76              	.LVL5:
  77 0026 11E0     		b	.L4
  78              	.LVL6:
  79              	.L8:
  80              	.LBE2:
  81              	.LBB3:
  26:main.c        ****     }
  27:main.c        **** 
  28:main.c        ****     for (int i = 2; i * i <= 400; i++)
  29:main.c        ****     {
  30:main.c        ****         if (prime[i] != -1)
  82              		.loc 1 30 0 is_stmt 1
ARM GAS  C:\Users\LENOVO~1\AppData\Local\Temp\ccshijzX.s 			page 3


  83 0028 01AA     		add	r2, sp, #4
  84 002a 52F82320 		ldr	r2, [r2, r3, lsl #2]
  85 002e B2F1FF3F 		cmp	r2, #-1
  86 0032 0AD0     		beq	.L5
  87              	.LBB4:
  31:main.c        ****         {
  32:main.c        **** 
  33:main.c        ****             for (int j = 2 * i; j <= 400; j += i)
  88              		.loc 1 33 0
  89 0034 5A00     		lsls	r2, r3, #1
  90              	.LVL7:
  91 0036 05E0     		b	.L6
  92              	.L7:
  34:main.c        ****                 prime[j] = -1;
  93              		.loc 1 34 0 discriminator 3
  94 0038 4FF0FF30 		mov	r0, #-1
  95 003c 01A9     		add	r1, sp, #4
  96 003e 41F82200 		str	r0, [r1, r2, lsl #2]
  33:main.c        ****                 prime[j] = -1;
  97              		.loc 1 33 0 discriminator 3
  98 0042 1A44     		add	r2, r2, r3
  99              	.LVL8:
 100              	.L6:
  33:main.c        ****                 prime[j] = -1;
 101              		.loc 1 33 0 is_stmt 0 discriminator 1
 102 0044 B2F5C87F 		cmp	r2, #400
 103 0048 F6DD     		ble	.L7
 104              	.LVL9:
 105              	.L5:
 106              	.LBE4:
  28:main.c        ****     {
 107              		.loc 1 28 0 is_stmt 1 discriminator 2
 108 004a 0133     		adds	r3, r3, #1
 109              	.LVL10:
 110              	.L4:
  28:main.c        ****     {
 111              		.loc 1 28 0 is_stmt 0 discriminator 1
 112 004c 03FB03F2 		mul	r2, r3, r3
 113 0050 B2F5C87F 		cmp	r2, #400
 114 0054 E8DD     		ble	.L8
 115              	.LBE3:
  35:main.c        ****         }
  36:main.c        ****     }
  37:main.c        ****     ADC_Start();
 116              		.loc 1 37 0 is_stmt 1
 117 0056 FFF7FEFF 		bl	ADC_Start
 118              	.LVL11:
  38:main.c        ****     ADC_StartConvert();
 119              		.loc 1 38 0
 120 005a FFF7FEFF 		bl	ADC_StartConvert
 121              	.LVL12:
  39:main.c        **** 
  40:main.c        ****     LCD_Start();
 122              		.loc 1 40 0
 123 005e FFF7FEFF 		bl	LCD_Start
 124              	.LVL13:
  41:main.c        ****     LCD_Position(0, 0);
ARM GAS  C:\Users\LENOVO~1\AppData\Local\Temp\ccshijzX.s 			page 4


 125              		.loc 1 41 0
 126 0062 0021     		movs	r1, #0
 127 0064 0846     		mov	r0, r1
 128 0066 FFF7FEFF 		bl	LCD_Position
 129              	.LVL14:
  42:main.c        ****     while (current_max_score != total_score)
 130              		.loc 1 42 0
 131 006a 69E1     		b	.L9
 132              	.LVL15:
 133              	.L10:
 134              	.LBB5:
 135              	.LBB6:
  43:main.c        ****     {
  44:main.c        ****         game_continue = true;
  45:main.c        **** 
  46:main.c        ****         LCD_Position(0, 4);
  47:main.c        ****         LCD_PrintString("Welcome");
  48:main.c        ****         LCD_Position(1, 2);
  49:main.c        ****         LCD_PrintString("P1: ");
  50:main.c        ****         LCD_PrintNumber(p1);
  51:main.c        ****         LCD_PutChar(' ');
  52:main.c        **** 
  53:main.c        ****         LCD_PrintString("P2: ");
  54:main.c        ****         LCD_PrintNumber(p2);
  55:main.c        **** 
  56:main.c        ****         CyDelay(1000);
  57:main.c        **** 
  58:main.c        ****         LCD_ClearDisplay();
  59:main.c        ****         while (game_continue)
  60:main.c        ****         {
  61:main.c        ****             //LCD_Position(0, 4);
  62:main.c        ****             CyDelay(100);
  63:main.c        ****             LCD_ClearDisplay();
  64:main.c        ****             LCD_PrintString("TURN: P1 ");
  65:main.c        **** 
  66:main.c        ****             CyDelay(2000);
  67:main.c        **** 
  68:main.c        ****             for (i = 0; i < 2000; i++)
  69:main.c        ****             {
  70:main.c        **** 
  71:main.c        ****                 uint32 j;
  72:main.c        ****                 for (j = 0; j < 6000; j++)
 136              		.loc 1 72 0 discriminator 3
 137 006c 0133     		adds	r3, r3, #1
 138              	.LVL16:
 139 006e 00E0     		b	.L11
 140              	.LVL17:
 141              	.L30:
 142              	.LBE6:
 143 0070 0023     		movs	r3, #0
 144              	.L11:
 145              	.LVL18:
 146              	.LBB7:
 147              		.loc 1 72 0 is_stmt 0 discriminator 1
 148 0072 41F26F72 		movw	r2, #5999
 149 0076 9342     		cmp	r3, r2
 150 0078 F8D9     		bls	.L10
ARM GAS  C:\Users\LENOVO~1\AppData\Local\Temp\ccshijzX.s 			page 5


 151              	.LBE7:
  68:main.c        ****             {
 152              		.loc 1 68 0 is_stmt 1 discriminator 2
 153 007a 0131     		adds	r1, r1, #1
 154              	.LVL19:
 155              	.L29:
  68:main.c        ****             {
 156              		.loc 1 68 0 is_stmt 0 discriminator 1
 157 007c B1F5FA6F 		cmp	r1, #2000
 158 0080 F6D3     		bcc	.L30
  73:main.c        ****                 {
  74:main.c        **** 
  75:main.c        ****                     
  76:main.c        ****                 }
  77:main.c        ****             }
  78:main.c        ****             ADC_IsEndConversion(ADC_WAIT_FOR_RESULT);
 159              		.loc 1 78 0 is_stmt 1
 160 0082 0020     		movs	r0, #0
 161 0084 FFF7FEFF 		bl	ADC_IsEndConversion
 162              	.LVL20:
  79:main.c        ****             uint16 adc_reading = ADC_GetResult16();
 163              		.loc 1 79 0
 164 0088 FFF7FEFF 		bl	ADC_GetResult16
 165              	.LVL21:
  80:main.c        **** 
  81:main.c        ****             t1 = ((int)adc_reading / 255.0) * 100.0;
 166              		.loc 1 81 0
 167 008c 80B2     		uxth	r0, r0
 168 008e FFF7FEFF 		bl	__aeabi_i2d
 169              	.LVL22:
 170 0092 BFA3     		adr	r3, .L35
 171 0094 D3E90023 		ldrd	r2, [r3]
 172 0098 FFF7FEFF 		bl	__aeabi_ddiv
 173              	.LVL23:
 174 009c 0022     		movs	r2, #0
 175 009e BE4B     		ldr	r3, .L35+8
 176 00a0 FFF7FEFF 		bl	__aeabi_dmul
 177              	.LVL24:
 178 00a4 FFF7FEFF 		bl	__aeabi_d2uiz
 179              	.LVL25:
  82:main.c        ****             //while(t1==0 || t1==96) t1=(rand()%96)+1;
  83:main.c        ****             if(t1==0 || t1==96|| t1==100) t1=(rand()%96)+1;
 180              		.loc 1 83 0
 181 00a8 0746     		mov	r7, r0
 182 00aa 18B1     		cbz	r0, .L12
 183              		.loc 1 83 0 is_stmt 0 discriminator 2
 184 00ac 6028     		cmp	r0, #96
 185 00ae 01D0     		beq	.L12
 186              		.loc 1 83 0 discriminator 4
 187 00b0 6428     		cmp	r0, #100
 188 00b2 0CD1     		bne	.L13
 189              	.L12:
 190              		.loc 1 83 0 discriminator 5
 191 00b4 FFF7FEFF 		bl	rand
 192              	.LVL26:
 193 00b8 B84F     		ldr	r7, .L35+12
 194              	.LVL27:
ARM GAS  C:\Users\LENOVO~1\AppData\Local\Temp\ccshijzX.s 			page 6


 195 00ba 87FB0037 		smull	r3, r7, r7, r0
 196 00be C317     		asrs	r3, r0, #31
 197 00c0 C3EB2717 		rsb	r7, r3, r7, asr #4
 198 00c4 07EB4707 		add	r7, r7, r7, lsl #1
 199 00c8 7B01     		lsls	r3, r7, #5
 200 00ca C71A     		subs	r7, r0, r3
 201 00cc 0137     		adds	r7, r7, #1
 202              	.LVL28:
 203              	.L13:
  84:main.c        ****             LCD_ClearDisplay();
 204              		.loc 1 84 0 is_stmt 1
 205 00ce 0120     		movs	r0, #1
 206 00d0 FFF7FEFF 		bl	LCD_WriteControl
 207              	.LVL29:
  85:main.c        ****             LCD_Position(0, 4);
 208              		.loc 1 85 0
 209 00d4 0421     		movs	r1, #4
 210 00d6 0020     		movs	r0, #0
 211 00d8 FFF7FEFF 		bl	LCD_Position
 212              	.LVL30:
  86:main.c        ****             LCD_PrintNumber(t1);
 213              		.loc 1 86 0
 214 00dc B8B2     		uxth	r0, r7
 215 00de FFF7FEFF 		bl	LCD_PrintU32Number
 216              	.LVL31:
  87:main.c        ****             CyDelay(1000);
 217              		.loc 1 87 0
 218 00e2 4FF47A70 		mov	r0, #1000
 219 00e6 FFF7FEFF 		bl	CyDelay
 220              	.LVL32:
  88:main.c        ****             LCD_ClearDisplay();
 221              		.loc 1 88 0
 222 00ea 0120     		movs	r0, #1
 223 00ec FFF7FEFF 		bl	LCD_WriteControl
 224              	.LVL33:
  89:main.c        **** 
  90:main.c        ****             if (prime[t1] != -1)
 225              		.loc 1 90 0
 226 00f0 01AB     		add	r3, sp, #4
 227 00f2 53F82730 		ldr	r3, [r3, r7, lsl #2]
 228 00f6 B3F1FF3F 		cmp	r3, #-1
 229 00fa 26D0     		beq	.L14
  91:main.c        ****             {
  92:main.c        **** 
  93:main.c        ****                 CyDelay(1000);
 230              		.loc 1 93 0
 231 00fc 4FF47A70 		mov	r0, #1000
 232 0100 FFF7FEFF 		bl	CyDelay
 233              	.LVL34:
  94:main.c        **** 
  95:main.c        ****                 LCD_ClearDisplay();
 234              		.loc 1 95 0
 235 0104 0120     		movs	r0, #1
 236 0106 FFF7FEFF 		bl	LCD_WriteControl
 237              	.LVL35:
  96:main.c        ****                 LCD_Position(0, 0);
 238              		.loc 1 96 0
ARM GAS  C:\Users\LENOVO~1\AppData\Local\Temp\ccshijzX.s 			page 7


 239 010a 0021     		movs	r1, #0
 240 010c 0846     		mov	r0, r1
 241 010e FFF7FEFF 		bl	LCD_Position
 242              	.LVL36:
  97:main.c        ****                 LCD_PrintString("MASTER MOVE: P1!!");
 243              		.loc 1 97 0
 244 0112 A348     		ldr	r0, .L35+16
 245 0114 FFF7FEFF 		bl	LCD_PrintString
 246              	.LVL37:
  98:main.c        ****                 Pin_2_Write(LED_ON);
 247              		.loc 1 98 0
 248 0118 0120     		movs	r0, #1
 249 011a FFF7FEFF 		bl	Pin_2_Write
 250              	.LVL38:
  99:main.c        ****                 CyDelay(6000);
 251              		.loc 1 99 0
 252 011e 41F27070 		movw	r0, #6000
 253 0122 FFF7FEFF 		bl	CyDelay
 254              	.LVL39:
 100:main.c        ****                 Pin_2_Write(LED_OFF);
 255              		.loc 1 100 0
 256 0126 0020     		movs	r0, #0
 257 0128 FFF7FEFF 		bl	Pin_2_Write
 258              	.LVL40:
 101:main.c        ****                
 102:main.c        ****                 p1 += 20;
 259              		.loc 1 102 0
 260 012c 1434     		adds	r4, r4, #20
 261              	.LVL41:
 103:main.c        ****                 LCD_PrintString("P1: ");
 262              		.loc 1 103 0
 263 012e 9D48     		ldr	r0, .L35+20
 264 0130 FFF7FEFF 		bl	LCD_PrintString
 265              	.LVL42:
 104:main.c        ****                 LCD_PrintNumber(p1);
 266              		.loc 1 104 0
 267 0134 A0B2     		uxth	r0, r4
 268 0136 FFF7FEFF 		bl	LCD_PrintU32Number
 269              	.LVL43:
 105:main.c        **** 
 106:main.c        ****                 CyDelay(1000);
 270              		.loc 1 106 0
 271 013a 4FF47A70 		mov	r0, #1000
 272 013e FFF7FEFF 		bl	CyDelay
 273              	.LVL44:
 107:main.c        ****                 LCD_ClearDisplay();
 274              		.loc 1 107 0
 275 0142 0120     		movs	r0, #1
 276 0144 FFF7FEFF 		bl	LCD_WriteControl
 277              	.LVL45:
 278 0148 0DE0     		b	.L15
 279              	.L14:
 108:main.c        ****             }
 109:main.c        ****             else
 110:main.c        ****             {
 111:main.c        ****                 LCD_ClearDisplay();
 280              		.loc 1 111 0
ARM GAS  C:\Users\LENOVO~1\AppData\Local\Temp\ccshijzX.s 			page 8


 281 014a 0120     		movs	r0, #1
 282 014c FFF7FEFF 		bl	LCD_WriteControl
 283              	.LVL46:
 112:main.c        ****                 LCD_Position(0, 4);
 284              		.loc 1 112 0
 285 0150 0421     		movs	r1, #4
 286 0152 0020     		movs	r0, #0
 287 0154 FFF7FEFF 		bl	LCD_Position
 288              	.LVL47:
 113:main.c        ****                 LCD_PrintString("P1: ");
 289              		.loc 1 113 0
 290 0158 9248     		ldr	r0, .L35+20
 291 015a FFF7FEFF 		bl	LCD_PrintString
 292              	.LVL48:
 114:main.c        ****                 p1 += 7;
 293              		.loc 1 114 0
 294 015e 0734     		adds	r4, r4, #7
 295              	.LVL49:
 115:main.c        ****                 LCD_PrintNumber(p1);
 296              		.loc 1 115 0
 297 0160 A0B2     		uxth	r0, r4
 298 0162 FFF7FEFF 		bl	LCD_PrintU32Number
 299              	.LVL50:
 300              	.L15:
 116:main.c        ****             }
 117:main.c        **** 
 118:main.c        ****             if (current_max_score < p1)
 301              		.loc 1 118 0
 302 0166 B442     		cmp	r4, r6
 303 0168 00D9     		bls	.L16
 119:main.c        ****             {
 120:main.c        ****                 current_max_score = p1;
 304              		.loc 1 120 0
 305 016a 2646     		mov	r6, r4
 306              	.LVL51:
 307              	.L16:
 121:main.c        ****             }
 122:main.c        ****             
 123:main.c        ****             
 124:main.c        ****             // TODO: PWM LIGHT
 125:main.c        ****             //TODO:
 126:main.c        ****             Pin_2_Write(LED_ON);
 308              		.loc 1 126 0
 309 016c 0120     		movs	r0, #1
 310 016e FFF7FEFF 		bl	Pin_2_Write
 311              	.LVL52:
 127:main.c        ****                 CyDelay(1000);
 312              		.loc 1 127 0
 313 0172 4FF47A70 		mov	r0, #1000
 314 0176 FFF7FEFF 		bl	CyDelay
 315              	.LVL53:
 128:main.c        ****             Pin_2_Write(LED_OFF);
 316              		.loc 1 128 0
 317 017a 0020     		movs	r0, #0
 318 017c FFF7FEFF 		bl	Pin_2_Write
 319              	.LVL54:
 129:main.c        ****             
ARM GAS  C:\Users\LENOVO~1\AppData\Local\Temp\ccshijzX.s 			page 9


 130:main.c        ****             CyDelay(1000);
 320              		.loc 1 130 0
 321 0180 4FF47A70 		mov	r0, #1000
 322 0184 FFF7FEFF 		bl	CyDelay
 323              	.LVL55:
 131:main.c        ****             if (current_max_score < total_score)
 324              		.loc 1 131 0
 325 0188 312E     		cmp	r6, #49
 326 018a 00F2A280 		bhi	.L17
 327              	.LBB8:
 132:main.c        ****             {
 133:main.c        ****                 LCD_ClearDisplay();
 328              		.loc 1 133 0
 329 018e 0120     		movs	r0, #1
 330 0190 FFF7FEFF 		bl	LCD_WriteControl
 331              	.LVL56:
 134:main.c        ****                 CyDelay(1000);
 332              		.loc 1 134 0
 333 0194 4FF47A70 		mov	r0, #1000
 334 0198 FFF7FEFF 		bl	CyDelay
 335              	.LVL57:
 135:main.c        ****                 LCD_PrintString("TURN: P2 ");
 336              		.loc 1 135 0
 337 019c 8248     		ldr	r0, .L35+24
 338 019e FFF7FEFF 		bl	LCD_PrintString
 339              	.LVL58:
 136:main.c        **** 
 137:main.c        ****                 CyDelay(2000);
 340              		.loc 1 137 0
 341 01a2 4FF4FA60 		mov	r0, #2000
 342 01a6 FFF7FEFF 		bl	CyDelay
 343              	.LVL59:
 138:main.c        **** 
 139:main.c        ****                 for (i = 0; i < 2000; i++)
 344              		.loc 1 139 0
 345 01aa 0021     		movs	r1, #0
 346 01ac 07E0     		b	.L18
 347              	.LVL60:
 348              	.L19:
 349              	.LBB9:
 140:main.c        ****                 {
 141:main.c        **** 
 142:main.c        ****                     uint32 j;
 143:main.c        ****                     for (j = 0; j < 6000; j++)
 350              		.loc 1 143 0 discriminator 3
 351 01ae 0133     		adds	r3, r3, #1
 352              	.LVL61:
 353 01b0 00E0     		b	.L20
 354              	.LVL62:
 355              	.L32:
 356              	.LBE9:
 357 01b2 0023     		movs	r3, #0
 358              	.L20:
 359              	.LVL63:
 360              	.LBB10:
 361              		.loc 1 143 0 is_stmt 0 discriminator 1
 362 01b4 41F26F72 		movw	r2, #5999
ARM GAS  C:\Users\LENOVO~1\AppData\Local\Temp\ccshijzX.s 			page 10


 363 01b8 9342     		cmp	r3, r2
 364 01ba F8D9     		bls	.L19
 365              	.LBE10:
 139:main.c        ****                 {
 366              		.loc 1 139 0 is_stmt 1 discriminator 2
 367 01bc 0131     		adds	r1, r1, #1
 368              	.LVL64:
 369              	.L18:
 139:main.c        ****                 {
 370              		.loc 1 139 0 is_stmt 0 discriminator 1
 371 01be B1F5FA6F 		cmp	r1, #2000
 372 01c2 F6D3     		bcc	.L32
 144:main.c        ****                     {
 145:main.c        **** 
 146:main.c        ****                        
 147:main.c        ****                     }
 148:main.c        ****                 }
 149:main.c        ****                 ADC_IsEndConversion(ADC_WAIT_FOR_RESULT);
 373              		.loc 1 149 0 is_stmt 1
 374 01c4 0020     		movs	r0, #0
 375 01c6 FFF7FEFF 		bl	ADC_IsEndConversion
 376              	.LVL65:
 150:main.c        ****                 uint16 adc_reading = ADC_GetResult16();
 377              		.loc 1 150 0
 378 01ca FFF7FEFF 		bl	ADC_GetResult16
 379              	.LVL66:
 151:main.c        **** 
 152:main.c        ****                 t2 = ((int)adc_reading / 255.0) * 100.0;
 380              		.loc 1 152 0
 381 01ce 80B2     		uxth	r0, r0
 382 01d0 FFF7FEFF 		bl	__aeabi_i2d
 383              	.LVL67:
 384 01d4 6EA3     		adr	r3, .L35
 385 01d6 D3E90023 		ldrd	r2, [r3]
 386 01da FFF7FEFF 		bl	__aeabi_ddiv
 387              	.LVL68:
 388 01de 0022     		movs	r2, #0
 389 01e0 6D4B     		ldr	r3, .L35+8
 390 01e2 FFF7FEFF 		bl	__aeabi_dmul
 391              	.LVL69:
 392 01e6 FFF7FEFF 		bl	__aeabi_d2uiz
 393              	.LVL70:
 153:main.c        ****                 //while(t2==0 || t2==96) t2=(rand()%96)+1;
 154:main.c        ****                 if(t2==0 || t2==96|| t2==100) t2=(rand()%96)+1;
 394              		.loc 1 154 0
 395 01ea 0746     		mov	r7, r0
 396              	.LVL71:
 397 01ec 18B1     		cbz	r0, .L21
 398              		.loc 1 154 0 is_stmt 0 discriminator 2
 399 01ee 6028     		cmp	r0, #96
 400 01f0 01D0     		beq	.L21
 401              		.loc 1 154 0 discriminator 4
 402 01f2 6428     		cmp	r0, #100
 403 01f4 0CD1     		bne	.L22
 404              	.L21:
 405              		.loc 1 154 0 discriminator 5
 406 01f6 FFF7FEFF 		bl	rand
ARM GAS  C:\Users\LENOVO~1\AppData\Local\Temp\ccshijzX.s 			page 11


 407              	.LVL72:
 408 01fa 684F     		ldr	r7, .L35+12
 409              	.LVL73:
 410 01fc 87FB0037 		smull	r3, r7, r7, r0
 411 0200 C317     		asrs	r3, r0, #31
 412 0202 C3EB2717 		rsb	r7, r3, r7, asr #4
 413 0206 07EB4707 		add	r7, r7, r7, lsl #1
 414 020a 7B01     		lsls	r3, r7, #5
 415 020c C71A     		subs	r7, r0, r3
 416 020e 0137     		adds	r7, r7, #1
 417              	.LVL74:
 418              	.L22:
 155:main.c        ****                 LCD_ClearDisplay();
 419              		.loc 1 155 0 is_stmt 1
 420 0210 0120     		movs	r0, #1
 421 0212 FFF7FEFF 		bl	LCD_WriteControl
 422              	.LVL75:
 156:main.c        ****                 LCD_Position(0, 4);
 423              		.loc 1 156 0
 424 0216 0421     		movs	r1, #4
 425 0218 0020     		movs	r0, #0
 426 021a FFF7FEFF 		bl	LCD_Position
 427              	.LVL76:
 157:main.c        ****                 LCD_PrintNumber(t2);
 428              		.loc 1 157 0
 429 021e B8B2     		uxth	r0, r7
 430 0220 FFF7FEFF 		bl	LCD_PrintU32Number
 431              	.LVL77:
 158:main.c        ****                 CyDelay(1000);
 432              		.loc 1 158 0
 433 0224 4FF47A70 		mov	r0, #1000
 434 0228 FFF7FEFF 		bl	CyDelay
 435              	.LVL78:
 159:main.c        ****                 LCD_ClearDisplay();
 436              		.loc 1 159 0
 437 022c 0120     		movs	r0, #1
 438 022e FFF7FEFF 		bl	LCD_WriteControl
 439              	.LVL79:
 160:main.c        **** 
 161:main.c        ****                 if (prime[t2] != -1)
 440              		.loc 1 161 0
 441 0232 01AB     		add	r3, sp, #4
 442 0234 53F82730 		ldr	r3, [r3, r7, lsl #2]
 443 0238 B3F1FF3F 		cmp	r3, #-1
 444 023c 2AD0     		beq	.L23
 162:main.c        ****                 {
 163:main.c        **** 
 164:main.c        ****                     CyDelay(1000);
 445              		.loc 1 164 0
 446 023e 4FF47A70 		mov	r0, #1000
 447 0242 FFF7FEFF 		bl	CyDelay
 448              	.LVL80:
 165:main.c        **** 
 166:main.c        ****                     LCD_ClearDisplay();
 449              		.loc 1 166 0
 450 0246 0120     		movs	r0, #1
 451 0248 FFF7FEFF 		bl	LCD_WriteControl
ARM GAS  C:\Users\LENOVO~1\AppData\Local\Temp\ccshijzX.s 			page 12


 452              	.LVL81:
 167:main.c        ****                     LCD_Position(0, 0);
 453              		.loc 1 167 0
 454 024c 0021     		movs	r1, #0
 455 024e 0846     		mov	r0, r1
 456 0250 FFF7FEFF 		bl	LCD_Position
 457              	.LVL82:
 168:main.c        ****                     LCD_PrintString("MASTER MOVE: P2!!");
 458              		.loc 1 168 0
 459 0254 5548     		ldr	r0, .L35+28
 460 0256 FFF7FEFF 		bl	LCD_PrintString
 461              	.LVL83:
 169:main.c        ****                     Pin_2_Write(LED_ON);
 462              		.loc 1 169 0
 463 025a 0120     		movs	r0, #1
 464 025c FFF7FEFF 		bl	Pin_2_Write
 465              	.LVL84:
 170:main.c        ****                 CyDelay(6000);
 466              		.loc 1 170 0
 467 0260 41F27070 		movw	r0, #6000
 468 0264 FFF7FEFF 		bl	CyDelay
 469              	.LVL85:
 171:main.c        ****                 Pin_2_Write(LED_OFF);
 470              		.loc 1 171 0
 471 0268 0020     		movs	r0, #0
 472 026a FFF7FEFF 		bl	Pin_2_Write
 473              	.LVL86:
 172:main.c        ****                 
 173:main.c        ****                 LCD_Position(1, 4);
 474              		.loc 1 173 0
 475 026e 0421     		movs	r1, #4
 476 0270 0120     		movs	r0, #1
 477 0272 FFF7FEFF 		bl	LCD_Position
 478              	.LVL87:
 174:main.c        ****                     p2 += 20;
 479              		.loc 1 174 0
 480 0276 1435     		adds	r5, r5, #20
 481              	.LVL88:
 175:main.c        ****                     LCD_PrintString("P2: ");
 482              		.loc 1 175 0
 483 0278 4D48     		ldr	r0, .L35+32
 484 027a FFF7FEFF 		bl	LCD_PrintString
 485              	.LVL89:
 176:main.c        ****                     LCD_PrintNumber(p2);
 486              		.loc 1 176 0
 487 027e A8B2     		uxth	r0, r5
 488 0280 FFF7FEFF 		bl	LCD_PrintU32Number
 489              	.LVL90:
 177:main.c        **** 
 178:main.c        ****                     CyDelay(1000);
 490              		.loc 1 178 0
 491 0284 4FF47A70 		mov	r0, #1000
 492 0288 FFF7FEFF 		bl	CyDelay
 493              	.LVL91:
 179:main.c        ****                     LCD_ClearDisplay();
 494              		.loc 1 179 0
 495 028c 0120     		movs	r0, #1
ARM GAS  C:\Users\LENOVO~1\AppData\Local\Temp\ccshijzX.s 			page 13


 496 028e FFF7FEFF 		bl	LCD_WriteControl
 497              	.LVL92:
 498 0292 0DE0     		b	.L24
 499              	.L23:
 180:main.c        ****                 }
 181:main.c        ****                 else
 182:main.c        ****                 {
 183:main.c        ****                     LCD_ClearDisplay();
 500              		.loc 1 183 0
 501 0294 0120     		movs	r0, #1
 502 0296 FFF7FEFF 		bl	LCD_WriteControl
 503              	.LVL93:
 184:main.c        ****                     LCD_Position(0, 4);
 504              		.loc 1 184 0
 505 029a 0421     		movs	r1, #4
 506 029c 0020     		movs	r0, #0
 507 029e FFF7FEFF 		bl	LCD_Position
 508              	.LVL94:
 185:main.c        ****                     LCD_PrintString("P2: ");
 509              		.loc 1 185 0
 510 02a2 4348     		ldr	r0, .L35+32
 511 02a4 FFF7FEFF 		bl	LCD_PrintString
 512              	.LVL95:
 186:main.c        ****                     p2 += 7;
 513              		.loc 1 186 0
 514 02a8 0735     		adds	r5, r5, #7
 515              	.LVL96:
 187:main.c        ****                     LCD_PrintNumber(p2);
 516              		.loc 1 187 0
 517 02aa A8B2     		uxth	r0, r5
 518 02ac FFF7FEFF 		bl	LCD_PrintU32Number
 519              	.LVL97:
 520              	.L24:
 188:main.c        ****                 }
 189:main.c        **** 
 190:main.c        ****                 if (current_max_score < p2)
 521              		.loc 1 190 0
 522 02b0 B542     		cmp	r5, r6
 523 02b2 00D9     		bls	.L25
 191:main.c        ****                     current_max_score = p2;
 524              		.loc 1 191 0
 525 02b4 2E46     		mov	r6, r5
 526              	.LVL98:
 527              	.L25:
 192:main.c        **** 
 193:main.c        ****                 CyDelay(1000);
 528              		.loc 1 193 0
 529 02b6 4FF47A70 		mov	r0, #1000
 530 02ba FFF7FEFF 		bl	CyDelay
 531              	.LVL99:
 194:main.c        **** 
 195:main.c        ****                 // TODO: PWM LED
 196:main.c        ****                 //TODO:   
 197:main.c        ****                 
 198:main.c        ****                 
 199:main.c        ****                 // game end
 200:main.c        ****                 Pin_2_Write(LED_ON);
ARM GAS  C:\Users\LENOVO~1\AppData\Local\Temp\ccshijzX.s 			page 14


 532              		.loc 1 200 0
 533 02be 0120     		movs	r0, #1
 534 02c0 FFF7FEFF 		bl	Pin_2_Write
 535              	.LVL100:
 201:main.c        ****                 CyDelay(1000);
 536              		.loc 1 201 0
 537 02c4 4FF47A70 		mov	r0, #1000
 538 02c8 FFF7FEFF 		bl	CyDelay
 539              	.LVL101:
 202:main.c        ****                 Pin_2_Write(LED_OFF);
 540              		.loc 1 202 0
 541 02cc 0020     		movs	r0, #0
 542 02ce FFF7FEFF 		bl	Pin_2_Write
 543              	.LVL102:
 544              	.L17:
 545              	.LBE8:
 203:main.c        ****             }
 204:main.c        **** 
 205:main.c        ****             if (current_max_score >= total_score)
 546              		.loc 1 205 0
 547 02d2 312E     		cmp	r6, #49
 548 02d4 25D9     		bls	.L26
 206:main.c        ****             {
 207:main.c        ****                 if (p1 > p2)
 549              		.loc 1 207 0
 550 02d6 AC42     		cmp	r4, r5
 551 02d8 11D9     		bls	.L27
 208:main.c        ****                 {
 209:main.c        **** 
 210:main.c        ****                     LCD_ClearDisplay();
 552              		.loc 1 210 0
 553 02da 0120     		movs	r0, #1
 554 02dc FFF7FEFF 		bl	LCD_WriteControl
 555              	.LVL103:
 211:main.c        ****                     LCD_Position(1, 4);
 556              		.loc 1 211 0
 557 02e0 0421     		movs	r1, #4
 558 02e2 0120     		movs	r0, #1
 559 02e4 FFF7FEFF 		bl	LCD_Position
 560              	.LVL104:
 212:main.c        ****                     LCD_PrintString("Winner: P1 :))");
 561              		.loc 1 212 0
 562 02e8 3248     		ldr	r0, .L35+36
 563 02ea FFF7FEFF 		bl	LCD_PrintString
 564              	.LVL105:
 213:main.c        ****                     CyDelay(5000);
 565              		.loc 1 213 0
 566 02ee 41F28830 		movw	r0, #5000
 567 02f2 FFF7FEFF 		bl	CyDelay
 568              	.LVL106:
 214:main.c        ****                     LCD_ClearDisplay();
 569              		.loc 1 214 0
 570 02f6 0120     		movs	r0, #1
 571 02f8 FFF7FEFF 		bl	LCD_WriteControl
 572              	.LVL107:
 573 02fc 20E0     		b	.L9
 574              	.L27:
ARM GAS  C:\Users\LENOVO~1\AppData\Local\Temp\ccshijzX.s 			page 15


 215:main.c        ****                 }
 216:main.c        ****                 else
 217:main.c        ****                 {
 218:main.c        **** 
 219:main.c        ****                     LCD_ClearDisplay();
 575              		.loc 1 219 0
 576 02fe 0120     		movs	r0, #1
 577 0300 FFF7FEFF 		bl	LCD_WriteControl
 578              	.LVL108:
 220:main.c        ****                     LCD_Position(1, 4);
 579              		.loc 1 220 0
 580 0304 0421     		movs	r1, #4
 581 0306 0120     		movs	r0, #1
 582 0308 FFF7FEFF 		bl	LCD_Position
 583              	.LVL109:
 221:main.c        ****                     LCD_PrintString("Winner: P2 :))");
 584              		.loc 1 221 0
 585 030c 2A48     		ldr	r0, .L35+40
 586 030e FFF7FEFF 		bl	LCD_PrintString
 587              	.LVL110:
 222:main.c        ****                     CyDelay(5000);
 588              		.loc 1 222 0
 589 0312 41F28830 		movw	r0, #5000
 590 0316 FFF7FEFF 		bl	CyDelay
 591              	.LVL111:
 223:main.c        ****                     LCD_ClearDisplay();
 592              		.loc 1 223 0
 593 031a 0120     		movs	r0, #1
 594 031c FFF7FEFF 		bl	LCD_WriteControl
 595              	.LVL112:
 596              	.LBE5:
 224:main.c        ****                 }
 225:main.c        **** 
 226:main.c        ****                 p1 = 0;
 227:main.c        ****                 p2 = 0;
 228:main.c        ****                 current_max_score = 0;
 229:main.c        ****                 game_continue = false;
 230:main.c        ****                 break;
 231:main.c        ****             }
 232:main.c        ****             else
 233:main.c        ****             {
 234:main.c        ****                 continue;
 235:main.c        ****             }
 236:main.c        ****         }
 237:main.c        ****         if (!game_continue)
 238:main.c        ****         {
 239:main.c        ****             continue;
 597              		.loc 1 239 0
 598 0320 0EE0     		b	.L9
 599              	.LVL113:
 600              	.L26:
 601              	.LBB11:
  62:main.c        ****             LCD_ClearDisplay();
 602              		.loc 1 62 0
 603 0322 6420     		movs	r0, #100
 604 0324 FFF7FEFF 		bl	CyDelay
 605              	.LVL114:
ARM GAS  C:\Users\LENOVO~1\AppData\Local\Temp\ccshijzX.s 			page 16


  63:main.c        ****             LCD_PrintString("TURN: P1 ");
 606              		.loc 1 63 0
 607 0328 0120     		movs	r0, #1
 608 032a FFF7FEFF 		bl	LCD_WriteControl
 609              	.LVL115:
  64:main.c        **** 
 610              		.loc 1 64 0
 611 032e 2348     		ldr	r0, .L35+44
 612 0330 FFF7FEFF 		bl	LCD_PrintString
 613              	.LVL116:
  66:main.c        **** 
 614              		.loc 1 66 0
 615 0334 4FF4FA60 		mov	r0, #2000
 616 0338 FFF7FEFF 		bl	CyDelay
 617              	.LVL117:
  68:main.c        ****             {
 618              		.loc 1 68 0
 619 033c 0021     		movs	r1, #0
 620 033e 9DE6     		b	.L29
 621              	.LVL118:
 622              	.L9:
 623              	.LBE11:
  46:main.c        ****         LCD_PrintString("Welcome");
 624              		.loc 1 46 0
 625 0340 0421     		movs	r1, #4
 626 0342 0020     		movs	r0, #0
 627 0344 FFF7FEFF 		bl	LCD_Position
 628              	.LVL119:
  47:main.c        ****         LCD_Position(1, 2);
 629              		.loc 1 47 0
 630 0348 1D48     		ldr	r0, .L35+48
 631 034a FFF7FEFF 		bl	LCD_PrintString
 632              	.LVL120:
  48:main.c        ****         LCD_PrintString("P1: ");
 633              		.loc 1 48 0
 634 034e 0221     		movs	r1, #2
 635 0350 0120     		movs	r0, #1
 636 0352 FFF7FEFF 		bl	LCD_Position
 637              	.LVL121:
  49:main.c        ****         LCD_PrintNumber(p1);
 638              		.loc 1 49 0
 639 0356 1348     		ldr	r0, .L35+20
 640 0358 FFF7FEFF 		bl	LCD_PrintString
 641              	.LVL122:
  50:main.c        ****         LCD_PutChar(' ');
 642              		.loc 1 50 0
 643 035c 0020     		movs	r0, #0
 644 035e FFF7FEFF 		bl	LCD_PrintU32Number
 645              	.LVL123:
  51:main.c        **** 
 646              		.loc 1 51 0
 647 0362 2020     		movs	r0, #32
 648 0364 FFF7FEFF 		bl	LCD_PutChar
 649              	.LVL124:
  53:main.c        ****         LCD_PrintNumber(p2);
 650              		.loc 1 53 0
 651 0368 1148     		ldr	r0, .L35+32
ARM GAS  C:\Users\LENOVO~1\AppData\Local\Temp\ccshijzX.s 			page 17


 652 036a FFF7FEFF 		bl	LCD_PrintString
 653              	.LVL125:
  54:main.c        **** 
 654              		.loc 1 54 0
 655 036e 0020     		movs	r0, #0
 656 0370 FFF7FEFF 		bl	LCD_PrintU32Number
 657              	.LVL126:
  56:main.c        **** 
 658              		.loc 1 56 0
 659 0374 4FF47A70 		mov	r0, #1000
 660 0378 FFF7FEFF 		bl	CyDelay
 661              	.LVL127:
  58:main.c        ****         while (game_continue)
 662              		.loc 1 58 0
 663 037c 0120     		movs	r0, #1
 664 037e FFF7FEFF 		bl	LCD_WriteControl
 665              	.LVL128:
  59:main.c        ****         {
 666              		.loc 1 59 0
 667 0382 0026     		movs	r6, #0
 668 0384 3546     		mov	r5, r6
 669 0386 3446     		mov	r4, r6
 670 0388 CBE7     		b	.L26
 671              	.L36:
 672 038a 00BFAFF3 		.align	3
 672      0080
 673              	.L35:
 674 0390 00000000 		.word	0
 675 0394 00E06F40 		.word	1081073664
 676 0398 00005940 		.word	1079574528
 677 039c ABAAAA2A 		.word	715827883
 678 03a0 00000000 		.word	.LC0
 679 03a4 14000000 		.word	.LC1
 680 03a8 1C000000 		.word	.LC2
 681 03ac 28000000 		.word	.LC3
 682 03b0 3C000000 		.word	.LC4
 683 03b4 44000000 		.word	.LC5
 684 03b8 54000000 		.word	.LC6
 685 03bc 64000000 		.word	.LC7
 686 03c0 70000000 		.word	.LC8
 687              		.cfi_endproc
 688              	.LFE64:
 689              		.size	main, .-main
 690              		.section	.rodata.str1.4,"aMS",%progbits,1
 691              		.align	2
 692              	.LC0:
 693 0000 4D415354 		.ascii	"MASTER MOVE: P1!!\000"
 693      4552204D 
 693      4F56453A 
 693      20503121 
 693      2100
 694 0012 0000     		.space	2
 695              	.LC1:
 696 0014 50313A20 		.ascii	"P1: \000"
 696      00
 697 0019 000000   		.space	3
 698              	.LC2:
ARM GAS  C:\Users\LENOVO~1\AppData\Local\Temp\ccshijzX.s 			page 18


 699 001c 5455524E 		.ascii	"TURN: P2 \000"
 699      3A205032 
 699      2000
 700 0026 0000     		.space	2
 701              	.LC3:
 702 0028 4D415354 		.ascii	"MASTER MOVE: P2!!\000"
 702      4552204D 
 702      4F56453A 
 702      20503221 
 702      2100
 703 003a 0000     		.space	2
 704              	.LC4:
 705 003c 50323A20 		.ascii	"P2: \000"
 705      00
 706 0041 000000   		.space	3
 707              	.LC5:
 708 0044 57696E6E 		.ascii	"Winner: P1 :))\000"
 708      65723A20 
 708      5031203A 
 708      292900
 709 0053 00       		.space	1
 710              	.LC6:
 711 0054 57696E6E 		.ascii	"Winner: P2 :))\000"
 711      65723A20 
 711      5032203A 
 711      292900
 712 0063 00       		.space	1
 713              	.LC7:
 714 0064 5455524E 		.ascii	"TURN: P1 \000"
 714      3A205031 
 714      2000
 715 006e 0000     		.space	2
 716              	.LC8:
 717 0070 57656C63 		.ascii	"Welcome\000"
 717      6F6D6500 
 718              		.text
 719              	.Letext0:
 720              		.file 2 "d:\\psoc creator\\4.4\\psoc creator\\import\\gnu\\arm\\5.4.1\\arm-none-eabi\\include\\mac
 721              		.file 3 "d:\\psoc creator\\4.4\\psoc creator\\import\\gnu\\arm\\5.4.1\\arm-none-eabi\\include\\sys
 722              		.file 4 "Generated_Source\\PSoC5/cytypes.h"
 723              		.file 5 "Generated_Source\\PSoC5/LCD.h"
 724              		.file 6 "Generated_Source\\PSoC5/CyLib.h"
 725              		.file 7 "Generated_Source\\PSoC5/ADC.h"
 726              		.file 8 "d:\\psoc creator\\4.4\\psoc creator\\import\\gnu\\arm\\5.4.1\\arm-none-eabi\\include\\std
 727              		.file 9 "Generated_Source\\PSoC5/Pin_2.h"
 728              		.file 10 "d:\\psoc creator\\4.4\\psoc creator\\import\\gnu\\arm\\5.4.1\\arm-none-eabi\\include\\ti
 729              		.file 11 "Generated_Source\\PSoC5/core_cm3.h"